target datalayout = "e-m:e-p270:32:32-p271:32:32-p272:64:64-i64:64-i128:128-f80:128-n8:16:32:64-S128"
target triple = "x86_64-pc-linux-gnu"

%"struct.XDR::xdr_ops" = type { ptr, ptr, ptr, ptr, ptr, ptr, ptr, ptr, ptr, ptr }
%struct.XDR = type { i32, ptr, ptr, ptr, ptr, i32 }

; Function Attrs: mustprogress uwtable
define noundef i32 @_Z8xdr_boolP3XDRPi(ptr noundef %0, ptr noundef %1) #0 {
  %3 = alloca i32, align 4
  %4 = alloca ptr, align 8
  %5 = alloca ptr, align 8
  %6 = alloca i32, align 4
  store ptr %0, ptr %4, align 8
  store ptr %1, ptr %5, align 8
  %7 = load ptr, ptr %4, align 8
  %8 = getelementptr inbounds %struct.XDR, ptr %7, i32 0, i32 0
  %9 = load i32, ptr %8, align 8
  switch i32 %9, label %38 [
    i32 0, label %10
    i32 1, label %22
    i32 2, label %37
  ]

10:                                               ; preds = %2
  %11 = load ptr, ptr %5, align 8
  %12 = load i32, ptr %11, align 4
  %13 = icmp ne i32 %12, 0
  %14 = select i1 %13, i32 1, i32 0
  store i32 %14, ptr %6, align 4
  %15 = load ptr, ptr %4, align 8
  %16 = getelementptr inbounds %struct.XDR, ptr %15, i32 0, i32 1
  %17 = load ptr, ptr %16, align 8
  %18 = getelementptr inbounds %"struct.XDR::xdr_ops", ptr %17, i32 0, i32 7
  %19 = load ptr, ptr %18, align 8
  %20 = load ptr, ptr %4, align 8
  %21 = call noundef i32 %19(ptr noundef %20, ptr noundef %6)
  store i32 %21, ptr %3, align 4
  br label %39

22:                                               ; preds = %2
  %23 = load ptr, ptr %4, align 8
  %24 = getelementptr inbounds %struct.XDR, ptr %23, i32 0, i32 1
  %25 = load ptr, ptr %24, align 8
  %26 = getelementptr inbounds %"struct.XDR::xdr_ops", ptr %25, i32 0, i32 6
  %27 = load ptr, ptr %26, align 8
  %28 = load ptr, ptr %4, align 8
  %29 = call noundef i32 %27(ptr noundef %28, ptr noundef %6)
  %30 = icmp ne i32 %29, 0
  br i1 %30, label %32, label %31

31:                                               ; preds = %22
  store i32 0, ptr %3, align 4
  br label %39

32:                                               ; preds = %22
  %33 = load i32, ptr %6, align 4
  %34 = icmp eq i32 %33, 0
  %35 = select i1 %34, i32 0, i32 1
  %36 = load ptr, ptr %5, align 8
  store i32 %35, ptr %36, align 4
  store i32 1, ptr %3, align 4
  br label %39

37:                                               ; preds = %2
  store i32 1, ptr %3, align 4
  br label %39

38:                                               ; preds = %2
  store i32 0, ptr %3, align 4
  br label %39

39:                                               ; preds = %38, %37, %32, %31, %10
  %40 = load i32, ptr %3, align 4
  ret i32 %40
}