; Function Attrs: mustprogress uwtable
define noundef i32 @_Z8xdr_boolP3XDRPi(ptr noundef %0, ptr nocapture noundef %1) local_unnamed_addr #0 {
  %3 = alloca i32, align 4
  %4 = load i32, ptr %0, align 8
  switch i32 %4, label %23 [
    i32 0, label %5
    i32 1, label %13
    i32 2, label %24
  ]

5:                                                ; preds = %2
  %6 = load i32, ptr %1, align 4
  %.not7 = icmp ne i32 %6, 0
  %7 = zext i1 %.not7 to i32
  store i32 %7, ptr %3, align 4
  %8 = getelementptr inbounds i8, ptr %0, i64 8
  %9 = load ptr, ptr %8, align 8
  %10 = getelementptr inbounds i8, ptr %9, i64 56
  %11 = load ptr, ptr %10, align 8
  %12 = call noundef i32 %11(ptr noundef nonnull %0, ptr noundef nonnull %3)
  br label %24

13:                                               ; preds = %2
  %14 = getelementptr inbounds i8, ptr %0, i64 8
  %15 = load ptr, ptr %14, align 8
  %16 = getelementptr inbounds i8, ptr %15, i64 48
  %17 = load ptr, ptr %16, align 8
  %18 = call noundef i32 %17(ptr noundef nonnull %0, ptr noundef nonnull %3)
  %.not = icmp eq i32 %18, 0
  br i1 %.not, label %24, label %19

19:                                               ; preds = %13
  %20 = load i32, ptr %3, align 4
  %21 = icmp ne i32 %20, 0
  %22 = zext i1 %21 to i32
  store i32 %22, ptr %1, align 4
  br label %24

23:                                               ; preds = %2
  br label %24

24:                                               ; preds = %2, %13, %23, %19, %5
  %.0 = phi i32 [ 0, %23 ], [ 1, %19 ], [ %12, %5 ], [ 0, %13 ], [ 1, %2 ]
  ret i32 %.0
}